target datalayout = "e-m:e-p270:32:32-p271:32:32-p272:64:64-i64:64-i128:128-f80:128-n8:16:32:64-S128"
target triple = "x86_64-pc-linux-gnu"

%struct.PaAlsaStream = type { %struct.PaUtilStreamRepresentation, %struct.PaUtilCpuLoadMeasurer, %struct.PaUtilBufferProcessor, %struct.PaUnixThread, i64, i64, i32, i32, i32, i32, ptr, i32, i32, i32, i32, %struct.PaUnixMutex, i32, double, double, %struct.PaAlsaStreamComponent, %struct.PaAlsaStreamComponent }
%struct.PaUtilStreamRepresentation = type { i64, ptr, ptr, ptr, ptr, ptr, %struct.PaStreamInfo }
%struct.PaStreamInfo = type { i32, double, double, double }
%struct.PaUtilCpuLoadMeasurer = type { double, double, double }
%struct.PaUtilBufferProcessor = type { i64, i64, i32, i32, i32, i32, i64, i32, i32, i32, i32, ptr, ptr, i32, i32, i32, i32, ptr, ptr, i64, i64, ptr, ptr, i64, ptr, ptr, i64, ptr, i64, i32, [2 x i64], [2 x ptr], i32, [2 x i64], [2 x ptr], %struct.PaUtilTriangularDitherGenerator, double, ptr, ptr }
%struct.PaUtilTriangularDitherGenerator = type { i32, i32, i32 }
%struct.PaUnixThread = type { i64, i32, i32, i32, %struct.PaUnixMutex, %union.pthread_cond_t, i32, i32 }
%union.pthread_cond_t = type { %struct.__pthread_cond_s }
%struct.__pthread_cond_s = type { %union.__atomic_wide_counter, %union.__atomic_wide_counter, [2 x i32], [2 x i32], i32, i32, [2 x i32] }
%union.__atomic_wide_counter = type { i64 }
%struct.PaUnixMutex = type { %union.pthread_mutex_t }
%union.pthread_mutex_t = type { %struct.__pthread_mutex_s }
%struct.__pthread_mutex_s = type { i32, i32, i32, i32, i32, i16, i16, %struct.__pthread_internal_list }
%struct.__pthread_internal_list = type { ptr, ptr }
%struct.PaAlsaStreamComponent = type { i64, i32, i32, i32, i32, i32, ptr, i32, i32, i32, i32, ptr, i64, i64, i32, i32, i32, ptr, i64, i32, ptr }

@alsa_snd_pcm_close = internal global ptr null, align 8

; Function Attrs: nounwind uwtable
define internal void @PaAlsaStreamComponent_Terminate(ptr noundef %0) #0 {
  %2 = alloca ptr, align 8
  store ptr %0, ptr %2, align 8, !tbaa !32
  %3 = load ptr, ptr @alsa_snd_pcm_close, align 8, !tbaa !32
  %4 = load ptr, ptr %2, align 8, !tbaa !32
  %5 = getelementptr inbounds nuw %struct.PaAlsaStreamComponent, ptr %4, i32 0, i32 11
  %6 = load ptr, ptr %5, align 8, !tbaa !179
  %7 = call i32 %3(ptr noundef %6)
  %8 = load ptr, ptr %2, align 8, !tbaa !32
  %9 = getelementptr inbounds nuw %struct.PaAlsaStreamComponent, ptr %8, i32 0, i32 17
  %10 = load ptr, ptr %9, align 8, !tbaa !190
  call void @PaUtil_FreeMemory(ptr noundef %10)
  %11 = load ptr, ptr %2, align 8, !tbaa !32
  %12 = getelementptr inbounds nuw %struct.PaAlsaStreamComponent, ptr %11, i32 0, i32 6
  %13 = load ptr, ptr %12, align 8, !tbaa !188
  call void @PaUtil_FreeMemory(ptr noundef %13)
  ret void
}

; Function Attrs: nounwind uwtable
define internal void @PaAlsaStream_Terminate(ptr noundef %0) #0 {
  %2 = alloca ptr, align 8
  %3 = alloca i32, align 4
  store ptr %0, ptr %2, align 8, !tbaa !38
  %4 = load ptr, ptr %2, align 8, !tbaa !38
  %5 = getelementptr inbounds nuw %struct.PaAlsaStream, ptr %4, i32 0, i32 19
  %6 = getelementptr inbounds nuw %struct.PaAlsaStreamComponent, ptr %5, i32 0, i32 11
  %7 = load ptr, ptr %6, align 8, !tbaa !100
  %8 = icmp ne ptr %7, null
  br i1 %8, label %9, label %12

9:                                                ; preds = %1
  %10 = load ptr, ptr %2, align 8, !tbaa !38
  %11 = getelementptr inbounds nuw %struct.PaAlsaStream, ptr %10, i32 0, i32 19
  call void @PaAlsaStreamComponent_Terminate(ptr noundef %11)
  br label %12

12:                                               ; preds = %9, %1
  %13 = load ptr, ptr %2, align 8, !tbaa !38
  %14 = getelementptr inbounds nuw %struct.PaAlsaStream, ptr %13, i32 0, i32 20
  %15 = getelementptr inbounds nuw %struct.PaAlsaStreamComponent, ptr %14, i32 0, i32 11
  %16 = load ptr, ptr %15, align 8, !tbaa !101
  %17 = icmp ne ptr %16, null
  br i1 %17, label %18, label %21

18:                                               ; preds = %12
  %19 = load ptr, ptr %2, align 8, !tbaa !38
  %20 = getelementptr inbounds nuw %struct.PaAlsaStream, ptr %19, i32 0, i32 20
  call void @PaAlsaStreamComponent_Terminate(ptr noundef %20)
  br label %21

21:                                               ; preds = %18, %12
  %22 = load ptr, ptr %2, align 8, !tbaa !38
  %23 = getelementptr inbounds nuw %struct.PaAlsaStream, ptr %22, i32 0, i32 10
  %24 = load ptr, ptr %23, align 8, !tbaa !169
  call void @PaUtil_FreeMemory(ptr noundef %24)
  br label %25

25:                                               ; preds = %21
  call void @llvm.lifetime.start.p0(i64 4, ptr %3) #17
  %26 = load ptr, ptr %2, align 8, !tbaa !38
  %27 = getelementptr inbounds nuw %struct.PaAlsaStream, ptr %26, i32 0, i32 15
  %28 = call i32 @PaUnixMutex_Terminate(ptr noundef %27)
  store i32 %28, ptr %3, align 4, !tbaa !8
  call void @llvm.lifetime.end.p0(i64 4, ptr %3) #17
  br label %29

29:                                               ; preds = %25
  %30 = load ptr, ptr %2, align 8, !tbaa !38
  call void @PaUtil_FreeMemory(ptr noundef %30)
  ret void
}