; Function Attrs: nounwind uwtable
define internal fastcc void @PaAlsaStream_Terminate(ptr noundef %0) unnamed_addr #2 {
  %2 = getelementptr inbounds nuw i8, ptr %0, i64 704
  %3 = load ptr, ptr %2, align 8, !tbaa !129
  %.not = icmp eq ptr %3, null
  br i1 %.not, label %10, label %4

4:                                                ; preds = %1
  %5 = tail call i32 @snd_pcm_close(ptr noundef nonnull %3) #25, !callees !179
  %6 = getelementptr inbounds nuw i8, ptr %0, i64 744
  %7 = load ptr, ptr %6, align 8, !tbaa !205
  tail call void @PaUtil_FreeMemory(ptr noundef %7) #25
  %8 = getelementptr inbounds nuw i8, ptr %0, i64 680
  %9 = load ptr, ptr %8, align 8, !tbaa !206
  tail call void @PaUtil_FreeMemory(ptr noundef %9) #25
  br label %10

10:                                               ; preds = %4, %1
  %11 = getelementptr inbounds nuw i8, ptr %0, i64 832
  %12 = load ptr, ptr %11, align 8, !tbaa !130
  %.not7 = icmp eq ptr %12, null
  br i1 %.not7, label %19, label %13

13:                                               ; preds = %10
  %14 = tail call i32 @snd_pcm_close(ptr noundef nonnull %12) #25, !callees !179
  %15 = getelementptr inbounds nuw i8, ptr %0, i64 872
  %16 = load ptr, ptr %15, align 8, !tbaa !205
  tail call void @PaUtil_FreeMemory(ptr noundef %16) #25
  %17 = getelementptr inbounds nuw i8, ptr %0, i64 808
  %18 = load ptr, ptr %17, align 8, !tbaa !206
  tail call void @PaUtil_FreeMemory(ptr noundef %18) #25
  br label %19

19:                                               ; preds = %13, %10
  %20 = getelementptr inbounds nuw i8, ptr %0, i64 560
  %21 = load ptr, ptr %20, align 8, !tbaa !64
  tail call void @PaUtil_FreeMemory(ptr noundef %21) #25
  %22 = getelementptr inbounds nuw i8, ptr %0, i64 584
  %23 = tail call i32 @PaUnixMutex_Terminate(ptr noundef nonnull %22) #25
  tail call void @PaUtil_FreeMemory(ptr noundef nonnull %0) #25
  ret void
}